target datalayout = "e-m:e-p270:32:32-p271:32:32-p272:64:64-i64:64-i128:128-f80:128-n8:16:32:64-S128"
target triple = "x86_64-pc-linux-gnu"

%struct.IDAMemRec = type { ptr, double, ptr, ptr, i32, double, double, ptr, i32, i32, ptr, ptr, i32, i32, [6 x ptr], [6 x double], [6 x double], [6 x double], [6 x double], [6 x double], ptr, ptr, ptr, ptr, ptr, ptr, ptr, ptr, ptr, ptr, ptr, ptr, ptr, ptr, ptr, ptr, ptr, double, ptr, ptr, i32, i32, i32, i32, i32, i32, i32, i32, double, double, double, i32, double, i32, i32, i32, i32, i32, double, double, double, double, double, double, double, double, double, double, double, double, double, double, double, double, i32, i32, i32, i32, i64, double, double, double, double, double, double, double, double, double, i64, i64, i64, i64, i64, i64, i64, i64, i64, i64, i64, double, i32, i32, i32, i32, i32, ptr, i32, ptr, ptr, ptr, ptr, ptr, ptr, ptr, double, i32, ptr, i32, ptr, ptr, double, double, double, ptr, ptr, ptr, double, double, i32, i32, i64, ptr, i32, [6 x double], [5 x double], [6 x ptr], [6 x ptr] }

@.str = private unnamed_addr constant [109 x i8] c"generated/home/dtcxzyw/WorkSpace/Projects/compilers/llvm-opt-benchmark/bench/sundials/sundials/src/ida/ida.c\00", align 1
@.str.3 = private unnamed_addr constant [24 x i8] c"ida_mem = NULL illegal.\00", align 1
@.str.29 = private unnamed_addr constant [75 x i8] c"Illegal value for t.t = %lg is not between tcur - hu = %lg and tcur = %lg.\00", align 1
@__func__.IDAGetSolution = private unnamed_addr constant [15 x i8] c"IDAGetSolution\00", align 1

; Function Attrs: nounwind uwtable
define i32 @IDAGetSolution(ptr noundef %0, double noundef %1, ptr noundef %2, ptr noundef %3) #0 {
  %5 = alloca i32, align 4
  %6 = alloca ptr, align 8
  %7 = alloca double, align 8
  %8 = alloca ptr, align 8
  %9 = alloca ptr, align 8
  %10 = alloca ptr, align 8
  %11 = alloca double, align 8
  %12 = alloca double, align 8
  %13 = alloca double, align 8
  %14 = alloca double, align 8
  %15 = alloca double, align 8
  %16 = alloca double, align 8
  %17 = alloca i32, align 4
  %18 = alloca i32, align 4
  %19 = alloca i32, align 4
  %20 = alloca i32, align 4
  store ptr %0, ptr %6, align 8, !tbaa !73
  store double %1, ptr %7, align 8, !tbaa !74
  store ptr %2, ptr %8, align 8, !tbaa !75
  store ptr %3, ptr %9, align 8, !tbaa !75
  call void @llvm.lifetime.start.p0(i64 8, ptr %10) #10
  call void @llvm.lifetime.start.p0(i64 8, ptr %11) #10
  call void @llvm.lifetime.start.p0(i64 8, ptr %12) #10
  call void @llvm.lifetime.start.p0(i64 8, ptr %13) #10
  call void @llvm.lifetime.start.p0(i64 8, ptr %14) #10
  call void @llvm.lifetime.start.p0(i64 8, ptr %15) #10
  call void @llvm.lifetime.start.p0(i64 8, ptr %16) #10
  call void @llvm.lifetime.start.p0(i64 4, ptr %17) #10
  call void @llvm.lifetime.start.p0(i64 4, ptr %18) #10
  call void @llvm.lifetime.start.p0(i64 4, ptr %19) #10
  %21 = load ptr, ptr %6, align 8, !tbaa !73
  %22 = icmp eq ptr %21, null
  br i1 %22, label %23, label %24

23:                                               ; preds = %4
  call void (ptr, i32, i32, ptr, ptr, ptr, ...) @IDAProcessError(ptr noundef null, i32 noundef -20, i32 noundef 3361, ptr noundef @__func__.IDAGetSolution, ptr noundef @.str, ptr noundef @.str.3)
  store i32 -20, ptr %5, align 4
  store i32 1, ptr %20, align 4
  br label %184

24:                                               ; preds = %4
  %25 = load ptr, ptr %6, align 8, !tbaa !73
  store ptr %25, ptr %10, align 8, !tbaa !8
  %26 = load ptr, ptr %10, align 8, !tbaa !8
  %27 = getelementptr inbounds nuw %struct.IDAMemRec, ptr %26, i32 0, i32 1
  %28 = load double, ptr %27, align 8, !tbaa !19
  %29 = fmul double 1.000000e+02, %28
  %30 = load ptr, ptr %10, align 8, !tbaa !8
  %31 = getelementptr inbounds nuw %struct.IDAMemRec, ptr %30, i32 0, i32 63
  %32 = load double, ptr %31, align 8, !tbaa !83
  %33 = call double @llvm.fabs.f64(double %32)
  %34 = load ptr, ptr %10, align 8, !tbaa !8
  %35 = getelementptr inbounds nuw %struct.IDAMemRec, ptr %34, i32 0, i32 60
  %36 = load double, ptr %35, align 8, !tbaa !142
  %37 = call double @llvm.fabs.f64(double %36)
  %38 = fadd double %33, %37
  %39 = fmul double %29, %38
  store double %39, ptr %11, align 8, !tbaa !74
  %40 = load ptr, ptr %10, align 8, !tbaa !8
  %41 = getelementptr inbounds nuw %struct.IDAMemRec, ptr %40, i32 0, i32 60
  %42 = load double, ptr %41, align 8, !tbaa !142
  %43 = fcmp olt double %42, 0.000000e+00
  br i1 %43, label %44, label %47

44:                                               ; preds = %24
  %45 = load double, ptr %11, align 8, !tbaa !74
  %46 = fneg double %45
  store double %46, ptr %11, align 8, !tbaa !74
  br label %47

47:                                               ; preds = %44, %24
  %48 = load ptr, ptr %10, align 8, !tbaa !8
  %49 = getelementptr inbounds nuw %struct.IDAMemRec, ptr %48, i32 0, i32 63
  %50 = load double, ptr %49, align 8, !tbaa !83
  %51 = load ptr, ptr %10, align 8, !tbaa !8
  %52 = getelementptr inbounds nuw %struct.IDAMemRec, ptr %51, i32 0, i32 61
  %53 = load double, ptr %52, align 8, !tbaa !99
  %54 = fsub double %50, %53
  %55 = load double, ptr %11, align 8, !tbaa !74
  %56 = fsub double %54, %55
  store double %56, ptr %12, align 8, !tbaa !74
  %57 = load double, ptr %7, align 8, !tbaa !74
  %58 = load double, ptr %12, align 8, !tbaa !74
  %59 = fsub double %57, %58
  %60 = load ptr, ptr %10, align 8, !tbaa !8
  %61 = getelementptr inbounds nuw %struct.IDAMemRec, ptr %60, i32 0, i32 60
  %62 = load double, ptr %61, align 8, !tbaa !142
  %63 = fmul double %59, %62
  %64 = fcmp olt double %63, 0.000000e+00
  br i1 %64, label %65, label %78

65:                                               ; preds = %47
  %66 = load ptr, ptr %10, align 8, !tbaa !8
  %67 = load double, ptr %7, align 8, !tbaa !74
  %68 = load ptr, ptr %10, align 8, !tbaa !8
  %69 = getelementptr inbounds nuw %struct.IDAMemRec, ptr %68, i32 0, i32 63
  %70 = load double, ptr %69, align 8, !tbaa !83
  %71 = load ptr, ptr %10, align 8, !tbaa !8
  %72 = getelementptr inbounds nuw %struct.IDAMemRec, ptr %71, i32 0, i32 61
  %73 = load double, ptr %72, align 8, !tbaa !99
  %74 = fsub double %70, %73
  %75 = load ptr, ptr %10, align 8, !tbaa !8
  %76 = getelementptr inbounds nuw %struct.IDAMemRec, ptr %75, i32 0, i32 63
  %77 = load double, ptr %76, align 8, !tbaa !83
  call void (ptr, i32, i32, ptr, ptr, ptr, ...) @IDAProcessError(ptr noundef %66, i32 noundef -26, i32 noundef 3374, ptr noundef @__func__.IDAGetSolution, ptr noundef @.str, ptr noundef @.str.29, double noundef %67, double noundef %74, double noundef %77)
  store i32 -26, ptr %5, align 4
  store i32 1, ptr %20, align 4
  br label %184

78:                                               ; preds = %47
  %79 = load ptr, ptr %10, align 8, !tbaa !8
  %80 = getelementptr inbounds nuw %struct.IDAMemRec, ptr %79, i32 0, i32 54
  %81 = load i32, ptr %80, align 4, !tbaa !98
  store i32 %81, ptr %18, align 4, !tbaa !64
  %82 = load ptr, ptr %10, align 8, !tbaa !8
  %83 = getelementptr inbounds nuw %struct.IDAMemRec, ptr %82, i32 0, i32 54
  %84 = load i32, ptr %83, align 4, !tbaa !98
  %85 = icmp eq i32 %84, 0
  br i1 %85, label %86, label %87

86:                                               ; preds = %78
  store i32 1, ptr %18, align 4, !tbaa !64
  br label %87

87:                                               ; preds = %86, %78
  %88 = load double, ptr %7, align 8, !tbaa !74
  %89 = load ptr, ptr %10, align 8, !tbaa !8
  %90 = getelementptr inbounds nuw %struct.IDAMemRec, ptr %89, i32 0, i32 63
  %91 = load double, ptr %90, align 8, !tbaa !83
  %92 = fsub double %88, %91
  store double %92, ptr %13, align 8, !tbaa !74
  store double 1.000000e+00, ptr %14, align 8, !tbaa !74
  store double 0.000000e+00, ptr %15, align 8, !tbaa !74
  %93 = load double, ptr %13, align 8, !tbaa !74
  %94 = load ptr, ptr %10, align 8, !tbaa !8
  %95 = getelementptr inbounds nuw %struct.IDAMemRec, ptr %94, i32 0, i32 15
  %96 = getelementptr inbounds [6 x double], ptr %95, i64 0, i64 0
  %97 = load double, ptr %96, align 8, !tbaa !74
  %98 = fdiv double %93, %97
  store double %98, ptr %16, align 8, !tbaa !74
  %99 = load double, ptr %14, align 8, !tbaa !74
  %100 = load ptr, ptr %10, align 8, !tbaa !8
  %101 = getelementptr inbounds nuw %struct.IDAMemRec, ptr %100, i32 0, i32 133
  %102 = getelementptr inbounds [6 x double], ptr %101, i64 0, i64 0
  store double %99, ptr %102, align 8, !tbaa !74
  store i32 1, ptr %17, align 4, !tbaa !64
  br label %103

103:                                              ; preds = %152, %87
  %104 = load i32, ptr %17, align 4, !tbaa !64
  %105 = load i32, ptr %18, align 4, !tbaa !64
  %106 = icmp sle i32 %104, %105
  br i1 %106, label %107, label %155

107:                                              ; preds = %103
  %108 = load double, ptr %15, align 8, !tbaa !74
  %109 = load double, ptr %16, align 8, !tbaa !74
  %110 = load double, ptr %14, align 8, !tbaa !74
  %111 = load ptr, ptr %10, align 8, !tbaa !8
  %112 = getelementptr inbounds nuw %struct.IDAMemRec, ptr %111, i32 0, i32 15
  %113 = load i32, ptr %17, align 4, !tbaa !64
  %114 = sub nsw i32 %113, 1
  %115 = sext i32 %114 to i64
  %116 = getelementptr inbounds [6 x double], ptr %112, i64 0, i64 %115
  %117 = load double, ptr %116, align 8, !tbaa !74
  %118 = fdiv double %110, %117
  %119 = call double @llvm.fmuladd.f64(double %108, double %109, double %118)
  store double %119, ptr %15, align 8, !tbaa !74
  %120 = load double, ptr %14, align 8, !tbaa !74
  %121 = load double, ptr %16, align 8, !tbaa !74
  %122 = fmul double %120, %121
  store double %122, ptr %14, align 8, !tbaa !74
  %123 = load double, ptr %13, align 8, !tbaa !74
  %124 = load ptr, ptr %10, align 8, !tbaa !8
  %125 = getelementptr inbounds nuw %struct.IDAMemRec, ptr %124, i32 0, i32 15
  %126 = load i32, ptr %17, align 4, !tbaa !64
  %127 = sub nsw i32 %126, 1
  %128 = sext i32 %127 to i64
  %129 = getelementptr inbounds [6 x double], ptr %125, i64 0, i64 %128
  %130 = load double, ptr %129, align 8, !tbaa !74
  %131 = fadd double %123, %130
  %132 = load ptr, ptr %10, align 8, !tbaa !8
  %133 = getelementptr inbounds nuw %struct.IDAMemRec, ptr %132, i32 0, i32 15
  %134 = load i32, ptr %17, align 4, !tbaa !64
  %135 = sext i32 %134 to i64
  %136 = getelementptr inbounds [6 x double], ptr %133, i64 0, i64 %135
  %137 = load double, ptr %136, align 8, !tbaa !74
  %138 = fdiv double %131, %137
  store double %138, ptr %16, align 8, !tbaa !74
  %139 = load double, ptr %14, align 8, !tbaa !74
  %140 = load ptr, ptr %10, align 8, !tbaa !8
  %141 = getelementptr inbounds nuw %struct.IDAMemRec, ptr %140, i32 0, i32 133
  %142 = load i32, ptr %17, align 4, !tbaa !64
  %143 = sext i32 %142 to i64
  %144 = getelementptr inbounds [6 x double], ptr %141, i64 0, i64 %143
  store double %139, ptr %144, align 8, !tbaa !74
  %145 = load double, ptr %15, align 8, !tbaa !74
  %146 = load ptr, ptr %10, align 8, !tbaa !8
  %147 = getelementptr inbounds nuw %struct.IDAMemRec, ptr %146, i32 0, i32 134
  %148 = load i32, ptr %17, align 4, !tbaa !64
  %149 = sub nsw i32 %148, 1
  %150 = sext i32 %149 to i64
  %151 = getelementptr inbounds [5 x double], ptr %147, i64 0, i64 %150
  store double %145, ptr %151, align 8, !tbaa !74
  br label %152

152:                                              ; preds = %107
  %153 = load i32, ptr %17, align 4, !tbaa !64
  %154 = add nsw i32 %153, 1
  store i32 %154, ptr %17, align 4, !tbaa !64
  br label %103

155:                                              ; preds = %103
  %156 = load i32, ptr %18, align 4, !tbaa !64
  %157 = add nsw i32 %156, 1
  %158 = load ptr, ptr %10, align 8, !tbaa !8
  %159 = getelementptr inbounds nuw %struct.IDAMemRec, ptr %158, i32 0, i32 133
  %160 = getelementptr inbounds [6 x double], ptr %159, i64 0, i64 0
  %161 = load ptr, ptr %10, align 8, !tbaa !8
  %162 = getelementptr inbounds nuw %struct.IDAMemRec, ptr %161, i32 0, i32 14
  %163 = getelementptr inbounds [6 x ptr], ptr %162, i64 0, i64 0
  %164 = load ptr, ptr %8, align 8, !tbaa !75
  %165 = call i32 @N_VLinearCombination(i32 noundef %157, ptr noundef %160, ptr noundef %163, ptr noundef %164)
  store i32 %165, ptr %19, align 4, !tbaa !64
  %166 = load i32, ptr %19, align 4, !tbaa !64
  %167 = icmp ne i32 %166, 0
  br i1 %167, label %168, label %169

168:                                              ; preds = %155
  store i32 -28, ptr %5, align 4
  store i32 1, ptr %20, align 4
  br label %184

169:                                              ; preds = %155
  %170 = load i32, ptr %18, align 4, !tbaa !64
  %171 = load ptr, ptr %10, align 8, !tbaa !8
  %172 = getelementptr inbounds nuw %struct.IDAMemRec, ptr %171, i32 0, i32 134
  %173 = getelementptr inbounds [5 x double], ptr %172, i64 0, i64 0
  %174 = load ptr, ptr %10, align 8, !tbaa !8
  %175 = getelementptr inbounds nuw %struct.IDAMemRec, ptr %174, i32 0, i32 14
  %176 = getelementptr inbounds [6 x ptr], ptr %175, i64 0, i64 0
  %177 = getelementptr inbounds ptr, ptr %176, i64 1
  %178 = load ptr, ptr %9, align 8, !tbaa !75
  %179 = call i32 @N_VLinearCombination(i32 noundef %170, ptr noundef %173, ptr noundef %177, ptr noundef %178)
  store i32 %179, ptr %19, align 4, !tbaa !64
  %180 = load i32, ptr %19, align 4, !tbaa !64
  %181 = icmp ne i32 %180, 0
  br i1 %181, label %182, label %183

182:                                              ; preds = %169
  store i32 -28, ptr %5, align 4
  store i32 1, ptr %20, align 4
  br label %184

183:                                              ; preds = %169
  store i32 0, ptr %5, align 4
  store i32 1, ptr %20, align 4
  br label %184

184:                                              ; preds = %183, %182, %168, %65, %23
  call void @llvm.lifetime.end.p0(i64 4, ptr %19) #10
  call void @llvm.lifetime.end.p0(i64 4, ptr %18) #10
  call void @llvm.lifetime.end.p0(i64 4, ptr %17) #10
  call void @llvm.lifetime.end.p0(i64 8, ptr %16) #10
  call void @llvm.lifetime.end.p0(i64 8, ptr %15) #10
  call void @llvm.lifetime.end.p0(i64 8, ptr %14) #10
  call void @llvm.lifetime.end.p0(i64 8, ptr %13) #10
  call void @llvm.lifetime.end.p0(i64 8, ptr %12) #10
  call void @llvm.lifetime.end.p0(i64 8, ptr %11) #10
  call void @llvm.lifetime.end.p0(i64 8, ptr %10) #10
  %185 = load i32, ptr %5, align 4
  ret i32 %185
}