; Function Attrs: nounwind uwtable
define range(i32 -28, 1) i32 @IDAGetSolution(ptr noundef %0, double noundef %1, ptr noundef %2, ptr noundef %3) local_unnamed_addr #0 {
  %5 = icmp eq ptr %0, null
  br i1 %5, label %6, label %7

6:                                                ; preds = %4
  tail call void (ptr, i32, i32, ptr, ptr, ptr, ...) @IDAProcessError(ptr noundef null, i32 noundef -20, i32 noundef 3361, ptr noundef nonnull @__func__.IDAGetSolution, ptr noundef nonnull @.str, ptr noundef nonnull @.str.3)
  br label %57

7:                                                ; preds = %4
  %8 = getelementptr inbounds nuw i8, ptr %0, i64 8
  %9 = load double, ptr %8, align 8, !tbaa !16
  %10 = fmul double %9, 1.000000e+02
  %11 = getelementptr inbounds nuw i8, ptr %0, i64 680
  %12 = load double, ptr %11, align 8, !tbaa !80
  %13 = tail call double @llvm.fabs.f64(double %12)
  %14 = getelementptr inbounds nuw i8, ptr %0, i64 656
  %15 = load double, ptr %14, align 8, !tbaa !118
  %16 = tail call double @llvm.fabs.f64(double %15)
  %17 = fadd double %13, %16
  %18 = fmul double %10, %17
  %19 = fcmp olt double %15, 0.000000e+00
  %20 = fneg double %18
  %.061 = select i1 %19, double %20, double %18
  %21 = getelementptr inbounds nuw i8, ptr %0, i64 664
  %22 = load double, ptr %21, align 8, !tbaa !83
  %23 = fsub double %12, %22
  %24 = fsub double %23, %.061
  %25 = fsub double %1, %24
  %26 = fmul double %15, %25
  %27 = fcmp olt double %26, 0.000000e+00
  br i1 %27, label %28, label %29

28:                                               ; preds = %7
  tail call void (ptr, i32, i32, ptr, ptr, ptr, ...) @IDAProcessError(ptr noundef nonnull %0, i32 noundef -26, i32 noundef 3374, ptr noundef nonnull @__func__.IDAGetSolution, ptr noundef nonnull @.str, ptr noundef nonnull @.str.29, double noundef %1, double noundef %23, double noundef %12)
  br label %57

29:                                               ; preds = %7
  %30 = getelementptr inbounds nuw i8, ptr %0, i64 620
  %31 = load i32, ptr %30, align 4, !tbaa !82
  %spec.store.select = tail call i32 @llvm.umax.i32(i32 %31, i32 1)
  %32 = fsub double %1, %12
  %33 = getelementptr inbounds nuw i8, ptr %0, i64 144
  %34 = load double, ptr %33, align 8, !tbaa !130
  %35 = getelementptr inbounds nuw i8, ptr %0, i64 1200
  store double 1.000000e+00, ptr %35, align 8, !tbaa !130
  %.not65 = icmp slt i32 %spec.store.select, 1
  br i1 %.not65, label %.._crit_edge_crit_edge, label %.lr.ph

.._crit_edge_crit_edge:                           ; preds = %29
  %.pre = add nsw i32 %spec.store.select, 1
  br label %._crit_edge

.lr.ph:                                           ; preds = %29
  %36 = fdiv double %32, %34
  %37 = getelementptr inbounds nuw i8, ptr %0, i64 1248
  %38 = add nuw i32 %spec.store.select, 1
  %wide.trip.count = zext i32 %38 to i64
  br label %39

39:                                               ; preds = %.lr.ph, %39
  %40 = phi double [ %34, %.lr.ph ], [ %47, %39 ]
  %indvars.iv = phi i64 [ 1, %.lr.ph ], [ %indvars.iv.next, %39 ]
  %.05768 = phi double [ %36, %.lr.ph ], [ %48, %39 ]
  %.05867 = phi double [ 0.000000e+00, %.lr.ph ], [ %43, %39 ]
  %.05966 = phi double [ 1.000000e+00, %.lr.ph ], [ %44, %39 ]
  %41 = add nsw i64 %indvars.iv, -1
  %42 = fdiv double %.05966, %40
  %43 = tail call double @llvm.fmuladd.f64(double %.05867, double %.05768, double %42)
  %44 = fmul double %.05966, %.05768
  %45 = fadd double %32, %40
  %46 = getelementptr inbounds nuw [6 x double], ptr %33, i64 0, i64 %indvars.iv
  %47 = load double, ptr %46, align 8, !tbaa !130
  %48 = fdiv double %45, %47
  %49 = getelementptr inbounds nuw [6 x double], ptr %35, i64 0, i64 %indvars.iv
  store double %44, ptr %49, align 8, !tbaa !130
  %50 = getelementptr inbounds [5 x double], ptr %37, i64 0, i64 %41
  store double %43, ptr %50, align 8, !tbaa !130
  %indvars.iv.next = add nuw nsw i64 %indvars.iv, 1
  %exitcond.not = icmp eq i64 %indvars.iv.next, %wide.trip.count
  br i1 %exitcond.not, label %._crit_edge, label %39

._crit_edge:                                      ; preds = %39, %.._crit_edge_crit_edge
  %.pre-phi = phi i32 [ %.pre, %.._crit_edge_crit_edge ], [ %38, %39 ]
  %51 = getelementptr inbounds nuw i8, ptr %0, i64 96
  %52 = tail call i32 @N_VLinearCombination(i32 noundef %.pre-phi, ptr noundef nonnull %35, ptr noundef nonnull %51, ptr noundef %2) #13
  %.not63 = icmp eq i32 %52, 0
  br i1 %.not63, label %53, label %57

53:                                               ; preds = %._crit_edge
  %54 = getelementptr inbounds nuw i8, ptr %0, i64 1248
  %55 = getelementptr inbounds nuw i8, ptr %0, i64 104
  %56 = tail call i32 @N_VLinearCombination(i32 noundef %spec.store.select, ptr noundef nonnull %54, ptr noundef nonnull %55, ptr noundef %3) #13
  %.not64 = icmp eq i32 %56, 0
  %. = select i1 %.not64, i32 0, i32 -28
  br label %57

57:                                               ; preds = %53, %._crit_edge, %28, %6
  %.060 = phi i32 [ -20, %6 ], [ -26, %28 ], [ -28, %._crit_edge ], [ %., %53 ]
  ret i32 %.060
}